target datalayout = "e-m:e-p270:32:32-p271:32:32-p272:64:64-i64:64-i128:128-f80:128-n8:16:32:64-S128"
target triple = "x86_64-pc-linux-gnu"

@hf_zbee_zcl_relhum_meas_measured_value = internal global i32 0, align 4
@hf_zbee_zcl_relhum_meas_min_measured_value = internal global i32 0, align 4
@hf_zbee_zcl_relhum_meas_max_measured_value = internal global i32 0, align 4
@hf_zbee_zcl_relhum_meas_tolerance = internal global i32 0, align 4

; Function Attrs: null_pointer_is_valid sspstrong uwtable
define internal void @dissect_zcl_relhum_meas_attr_data(ptr noundef %0, ptr noundef %1, ptr noundef %2, i16 noundef zeroext %3, i32 noundef %4, i1 noundef zeroext %5) #0 {
  %7 = alloca ptr, align 8
  %8 = alloca ptr, align 8
  %9 = alloca ptr, align 8
  %10 = alloca i16, align 2
  %11 = alloca i32, align 4
  %12 = alloca i8, align 1
  store ptr %0, ptr %7, align 8
  store ptr %1, ptr %8, align 8
  store ptr %2, ptr %9, align 8
  store i16 %3, ptr %10, align 2
  store i32 %4, ptr %11, align 4
  %13 = zext i1 %5 to i8
  store i8 %13, ptr %12, align 1
  %14 = load i16, ptr %10, align 2
  %15 = zext i16 %14 to i32
  switch i32 %15, label %56 [
    i32 0, label %16
    i32 1, label %26
    i32 2, label %36
    i32 3, label %46
  ]

16:                                               ; preds = %6
  %17 = load ptr, ptr %7, align 8
  %18 = load i32, ptr @hf_zbee_zcl_relhum_meas_measured_value, align 4
  %19 = load ptr, ptr %8, align 8
  %20 = load ptr, ptr %9, align 8
  %21 = load i32, ptr %20, align 4
  %22 = call ptr @proto_tree_add_item(ptr noundef %17, i32 noundef %18, ptr noundef %19, i32 noundef %21, i32 noundef 2, i32 noundef -2147483648)
  %23 = load ptr, ptr %9, align 8
  %24 = load i32, ptr %23, align 4
  %25 = add i32 %24, 2
  store i32 %25, ptr %23, align 4
  br label %63

26:                                               ; preds = %6
  %27 = load ptr, ptr %7, align 8
  %28 = load i32, ptr @hf_zbee_zcl_relhum_meas_min_measured_value, align 4
  %29 = load ptr, ptr %8, align 8
  %30 = load ptr, ptr %9, align 8
  %31 = load i32, ptr %30, align 4
  %32 = call ptr @proto_tree_add_item(ptr noundef %27, i32 noundef %28, ptr noundef %29, i32 noundef %31, i32 noundef 2, i32 noundef -2147483648)
  %33 = load ptr, ptr %9, align 8
  %34 = load i32, ptr %33, align 4
  %35 = add i32 %34, 2
  store i32 %35, ptr %33, align 4
  br label %63

36:                                               ; preds = %6
  %37 = load ptr, ptr %7, align 8
  %38 = load i32, ptr @hf_zbee_zcl_relhum_meas_max_measured_value, align 4
  %39 = load ptr, ptr %8, align 8
  %40 = load ptr, ptr %9, align 8
  %41 = load i32, ptr %40, align 4
  %42 = call ptr @proto_tree_add_item(ptr noundef %37, i32 noundef %38, ptr noundef %39, i32 noundef %41, i32 noundef 2, i32 noundef -2147483648)
  %43 = load ptr, ptr %9, align 8
  %44 = load i32, ptr %43, align 4
  %45 = add i32 %44, 2
  store i32 %45, ptr %43, align 4
  br label %63

46:                                               ; preds = %6
  %47 = load ptr, ptr %7, align 8
  %48 = load i32, ptr @hf_zbee_zcl_relhum_meas_tolerance, align 4
  %49 = load ptr, ptr %8, align 8
  %50 = load ptr, ptr %9, align 8
  %51 = load i32, ptr %50, align 4
  %52 = call ptr @proto_tree_add_item(ptr noundef %47, i32 noundef %48, ptr noundef %49, i32 noundef %51, i32 noundef 2, i32 noundef -2147483648)
  %53 = load ptr, ptr %9, align 8
  %54 = load i32, ptr %53, align 4
  %55 = add i32 %54, 2
  store i32 %55, ptr %53, align 4
  br label %63

56:                                               ; preds = %6
  %57 = load ptr, ptr %8, align 8
  %58 = load ptr, ptr %7, align 8
  %59 = load ptr, ptr %9, align 8
  %60 = load i32, ptr %11, align 4
  %61 = load i8, ptr %12, align 1, !range !6, !noundef !7
  %62 = trunc i8 %61 to i1
  call void @dissect_zcl_attr_data(ptr noundef %57, ptr noundef %58, ptr noundef %59, i32 noundef %60, i1 noundef zeroext %62)
  br label %63

63:                                               ; preds = %56, %46, %36, %26, %16
  ret void
}